target datalayout = "e-m:e-p270:32:32-p271:32:32-p272:64:64-i64:64-i128:128-f80:128-n8:16:32:64-S128"
target triple = "x86_64-pc-linux-gnu"

%"class.draco::DecoderBuffer" = type <{ ptr, i64, i64, %"class.draco::DecoderBuffer::BitDecoder", i8, i8, i16, [4 x i8] }>
%"class.draco::DecoderBuffer::BitDecoder" = type { ptr, ptr, i64 }

; Function Attrs: mustprogress nounwind uwtable
define void @_ZN5draco13DecoderBuffer4InitEPKcmt(ptr noundef nonnull align 8 dereferenceable(52) %0, ptr noundef %1, i64 noundef %2, i16 noundef zeroext %3) #5 align 2 {
  %5 = alloca ptr, align 8
  %6 = alloca ptr, align 8
  %7 = alloca i64, align 8
  %8 = alloca i16, align 2
  store ptr %0, ptr %5, align 8, !tbaa !3
  store ptr %1, ptr %6, align 8, !tbaa !19
  store i64 %2, ptr %7, align 8, !tbaa !20
  store i16 %3, ptr %8, align 2, !tbaa !21
  %9 = load ptr, ptr %5, align 8
  %10 = load ptr, ptr %6, align 8, !tbaa !19
  %11 = getelementptr inbounds nuw %"class.draco::DecoderBuffer", ptr %9, i32 0, i32 0
  store ptr %10, ptr %11, align 8, !tbaa !8
  %12 = load i64, ptr %7, align 8, !tbaa !20
  %13 = getelementptr inbounds nuw %"class.draco::DecoderBuffer", ptr %9, i32 0, i32 1
  store i64 %12, ptr %13, align 8, !tbaa !15
  %14 = load i16, ptr %8, align 2, !tbaa !21
  %15 = getelementptr inbounds nuw %"class.draco::DecoderBuffer", ptr %9, i32 0, i32 6
  store i16 %14, ptr %15, align 2, !tbaa !18
  %16 = getelementptr inbounds nuw %"class.draco::DecoderBuffer", ptr %9, i32 0, i32 2
  store i64 0, ptr %16, align 8, !tbaa !16
  ret void
}