; Function Attrs: mustprogress nofree norecurse nosync nounwind willreturn memory(argmem: write) uwtable
define void @_ZN5draco13DecoderBuffer4InitEPKcmt(ptr noundef nonnull writeonly align 8 captures(none) dereferenceable(52) initializes((0, 24), (50, 52)) %0, ptr noundef %1, i64 noundef %2, i16 noundef zeroext %3) local_unnamed_addr #4 align 2 {
  store ptr %1, ptr %0, align 8, !tbaa !14
  %5 = getelementptr inbounds nuw i8, ptr %0, i64 8
  store i64 %2, ptr %5, align 8, !tbaa !15
  %6 = getelementptr inbounds nuw i8, ptr %0, i64 50
  store i16 %3, ptr %6, align 2, !tbaa !13
  %7 = getelementptr inbounds nuw i8, ptr %0, i64 16
  store i64 0, ptr %7, align 8, !tbaa !16
  ret void
}